; Function Attrs: mustprogress uwtable
define void @_ZN5Ipopt13CGPenaltyData16AcceptTrialPointEv(ptr nocapture noundef nonnull align 8 dereferenceable(105) %0) unnamed_addr #6 align 2 {
  %2 = getelementptr inbounds i8, ptr %0, i64 16
  %3 = load ptr, ptr %2, align 8
  %.not.i.i.i = icmp eq ptr %3, null
  br i1 %.not.i.i.i, label %_ZN5Ipopt8SmartPtrIKNS_14IteratesVectorEEaSEPS2_.exit, label %4

4:                                                ; preds = %1
  %5 = getelementptr inbounds i8, ptr %3, i64 8
  %6 = load i32, ptr %5, align 8
  %7 = add nsw i32 %6, -1
  store i32 %7, ptr %5, align 8
  %8 = load ptr, ptr %2, align 8
  %9 = getelementptr inbounds i8, ptr %8, i64 8
  %10 = load i32, ptr %9, align 8
  %11 = icmp eq i32 %10, 0
  br i1 %11, label %12, label %_ZN5Ipopt8SmartPtrIKNS_14IteratesVectorEEaSEPS2_.exit

12:                                               ; preds = %4
  %13 = load ptr, ptr %8, align 8
  %14 = getelementptr inbounds i8, ptr %13, i64 8
  %15 = load ptr, ptr %14, align 8
  tail call void %15(ptr noundef nonnull align 8 dereferenceable(280) %8) #8
  br label %_ZN5Ipopt8SmartPtrIKNS_14IteratesVectorEEaSEPS2_.exit

_ZN5Ipopt8SmartPtrIKNS_14IteratesVectorEEaSEPS2_.exit: ; preds = %1, %4, %12
  store ptr null, ptr %2, align 8
  %16 = getelementptr inbounds i8, ptr %0, i64 32
  %17 = load ptr, ptr %16, align 8
  %.not.i.i.i1 = icmp eq ptr %17, null
  br i1 %.not.i.i.i1, label %_ZN5Ipopt8SmartPtrIKNS_14IteratesVectorEEaSEPS2_.exit2, label %18

18:                                               ; preds = %_ZN5Ipopt8SmartPtrIKNS_14IteratesVectorEEaSEPS2_.exit
  %19 = getelementptr inbounds i8, ptr %17, i64 8
  %20 = load i32, ptr %19, align 8
  %21 = add nsw i32 %20, -1
  store i32 %21, ptr %19, align 8
  %22 = load ptr, ptr %16, align 8
  %23 = getelementptr inbounds i8, ptr %22, i64 8
  %24 = load i32, ptr %23, align 8
  %25 = icmp eq i32 %24, 0
  br i1 %25, label %26, label %_ZN5Ipopt8SmartPtrIKNS_14IteratesVectorEEaSEPS2_.exit2

26:                                               ; preds = %18
  %27 = load ptr, ptr %22, align 8
  %28 = getelementptr inbounds i8, ptr %27, i64 8
  %29 = load ptr, ptr %28, align 8
  tail call void %29(ptr noundef nonnull align 8 dereferenceable(280) %22) #8
  br label %_ZN5Ipopt8SmartPtrIKNS_14IteratesVectorEEaSEPS2_.exit2

_ZN5Ipopt8SmartPtrIKNS_14IteratesVectorEEaSEPS2_.exit2: ; preds = %_ZN5Ipopt8SmartPtrIKNS_14IteratesVectorEEaSEPS2_.exit, %18, %26
  store ptr null, ptr %16, align 8
  %30 = getelementptr inbounds i8, ptr %0, i64 24
  store i8 0, ptr %30, align 8
  %31 = getelementptr inbounds i8, ptr %0, i64 40
  store i8 0, ptr %31, align 8
  ret void
}